target datalayout = "e-m:e-p270:32:32-p271:32:32-p272:64:64-i64:64-i128:128-f80:128-n8:16:32:64-S128"
target triple = "x86_64-unknown-linux-gnu"

%"class.std::__cxx11::basic_string" = type { %"struct.std::__cxx11::basic_string<char>::_Alloc_hider", i64, %union.anon }
%"struct.std::__cxx11::basic_string<char>::_Alloc_hider" = type { ptr }
%union.anon = type { i64, [8 x i8] }
%"class.folly::Range" = type { ptr, ptr }
%"class.proxygen::HTTP1xCodec" = type <{ %"class.proxygen::HTTPCodec", %"class.std::__cxx11::basic_string", ptr, i64, i64, %"struct.proxygen::http_parser", ptr, %"class.std::unique_ptr", %"class.std::unique_ptr", %"class.std::unique_ptr.7", %"class.std::__cxx11::basic_string", %"class.folly::Range", %"class.std::__cxx11::basic_string", %"class.std::__cxx11::basic_string", %"class.std::__cxx11::basic_string", %"class.std::__cxx11::basic_string", %"class.std::__cxx11::basic_string", %"class.std::__cxx11::basic_string", %"struct.proxygen::HTTPHeaderSize", i8, i8, i8, i8, %"struct.std::pair", i32, [4 x i8] }>
%"class.proxygen::HTTPCodec" = type { ptr }
%"struct.proxygen::http_parser" = type { i8, i8, i8, i8, i32, i64, i16, i16, i16, i8, i8, ptr }
%"class.std::unique_ptr" = type { %"struct.std::__uniq_ptr_data" }
%"struct.std::__uniq_ptr_data" = type { %"class.std::__uniq_ptr_impl" }
%"class.std::__uniq_ptr_impl" = type { %"class.std::tuple" }
%"class.std::tuple" = type { %"struct.std::_Tuple_impl" }
%"struct.std::_Tuple_impl" = type { %"struct.std::_Head_base.6" }
%"struct.std::_Head_base.6" = type { ptr }
%"class.std::unique_ptr.7" = type { %"struct.std::__uniq_ptr_data.8" }
%"struct.std::__uniq_ptr_data.8" = type { %"class.std::__uniq_ptr_impl.9" }
%"class.std::__uniq_ptr_impl.9" = type { %"class.std::tuple.10" }
%"class.std::tuple.10" = type { %"struct.std::_Tuple_impl.11" }
%"struct.std::_Tuple_impl.11" = type { %"struct.std::_Head_base.14" }
%"struct.std::_Head_base.14" = type { ptr }
%"struct.proxygen::HTTPHeaderSize" = type { i32, i32, i32 }
%"struct.std::pair" = type { i8, %"class.std::__cxx11::basic_string" }

; Function Attrs: mustprogress nounwind uwtable
define noundef i64 @_ZN8proxygen11HTTP1xCodec14generateGoawayERN5folly10IOBufQueueEmNS_9ErrorCodeESt10unique_ptrINS1_5IOBufESt14default_deleteIS6_EE(ptr noundef nonnull align 8 dereferenceable(428) %this, ptr noundef nonnull align 8 dereferenceable(72) %0, i64 noundef %lastStream, i8 noundef zeroext %error, ptr noundef %1) unnamed_addr #5 align 2 {
entry:
  %this.addr = alloca ptr, align 8
  %.addr = alloca ptr, align 8
  %lastStream.addr = alloca i64, align 8
  %error.addr = alloca i8, align 1
  %.indirect_addr = alloca ptr, align 8
  store ptr %this, ptr %this.addr, align 8
  store ptr %0, ptr %.addr, align 8
  store i64 %lastStream, ptr %lastStream.addr, align 8
  store i8 %error, ptr %error.addr, align 1
  store ptr %1, ptr %.indirect_addr, align 8
  %this1 = load ptr, ptr %this.addr, align 8
  %transportDirection_ = getelementptr inbounds %"class.proxygen::HTTP1xCodec", ptr %this1, i32 0, i32 20
  %2 = load i8, ptr %transportDirection_, align 1
  %cmp = icmp eq i8 %2, 1
  br i1 %cmp, label %if.then, label %lor.lhs.false

lor.lhs.false:                                    ; preds = %entry
  %disableKeepalivePending_ = getelementptr inbounds %"class.proxygen::HTTP1xCodec", ptr %this1, i32 0, i32 24
  %bf.load = load i32, ptr %disableKeepalivePending_, align 8
  %bf.lshr = lshr i32 %bf.load, 12
  %bf.clear = and i32 %bf.lshr, 1
  %bf.cast = trunc i32 %bf.clear to i1
  br i1 %bf.cast, label %if.then, label %lor.lhs.false2

lor.lhs.false2:                                   ; preds = %lor.lhs.false
  %3 = load i64, ptr %lastStream.addr, align 8
  %cmp3 = icmp ne i64 %3, -1
  br i1 %cmp3, label %if.then, label %lor.lhs.false4

lor.lhs.false4:                                   ; preds = %lor.lhs.false2
  %4 = load i8, ptr %error.addr, align 1
  %cmp5 = icmp ne i8 %4, 0
  br i1 %cmp5, label %if.then, label %if.else

if.then:                                          ; preds = %lor.lhs.false4, %lor.lhs.false2, %lor.lhs.false, %entry
  %keepalive_ = getelementptr inbounds %"class.proxygen::HTTP1xCodec", ptr %this1, i32 0, i32 24
  %bf.load6 = load i32, ptr %keepalive_, align 8
  %bf.clear7 = and i32 %bf.load6, -2049
  %bf.set = or i32 %bf.clear7, 0
  store i32 %bf.set, ptr %keepalive_, align 8
  br label %if.end

if.else:                                          ; preds = %lor.lhs.false4
  %disableKeepalivePending_8 = getelementptr inbounds %"class.proxygen::HTTP1xCodec", ptr %this1, i32 0, i32 24
  %bf.load9 = load i32, ptr %disableKeepalivePending_8, align 8
  %bf.clear10 = and i32 %bf.load9, -4097
  %bf.set11 = or i32 %bf.clear10, 4096
  store i32 %bf.set11, ptr %disableKeepalivePending_8, align 8
  br label %if.end

if.end:                                           ; preds = %if.else, %if.then
  ret i64 0
}