; Function Attrs: mustprogress nofree norecurse nosync nounwind willreturn memory(argmem: readwrite) uwtable
define noundef i64 @_ZN8proxygen11HTTP1xCodec14generateGoawayERN5folly10IOBufQueueEmNS_9ErrorCodeESt10unique_ptrINS1_5IOBufESt14default_deleteIS6_EE(ptr nocapture noundef nonnull align 8 dereferenceable(428) %this, ptr nocapture nonnull readnone align 8 %0, i64 noundef %lastStream, i8 noundef zeroext %error, ptr nocapture readnone %1) unnamed_addr #7 align 2 {
entry:
  %transportDirection_ = getelementptr inbounds i8, ptr %this, i64 381
  %2 = load i8, ptr %transportDirection_, align 1
  %cmp = icmp eq i8 %2, 1
  %keepalive_.phi.trans.insert = getelementptr inbounds i8, ptr %this, i64 424
  %bf.load6.pre = load i32, ptr %keepalive_.phi.trans.insert, align 8
  br i1 %cmp, label %if.then, label %lor.lhs.false

lor.lhs.false:                                    ; preds = %entry
  %3 = and i32 %bf.load6.pre, 4096
  %bf.cast = icmp ne i32 %3, 0
  %cmp3 = icmp ne i64 %lastStream, -1
  %or.cond = or i1 %cmp3, %bf.cast
  %cmp5 = icmp ne i8 %error, 0
  %or.cond1 = or i1 %cmp5, %or.cond
  br i1 %or.cond1, label %if.then, label %if.else

if.then:                                          ; preds = %entry, %lor.lhs.false
  %keepalive_ = getelementptr inbounds i8, ptr %this, i64 424
  %bf.clear7 = and i32 %bf.load6.pre, -2049
  store i32 %bf.clear7, ptr %keepalive_, align 8
  br label %if.end

if.else:                                          ; preds = %lor.lhs.false
  %bf.set11 = or disjoint i32 %bf.load6.pre, 4096
  store i32 %bf.set11, ptr %keepalive_.phi.trans.insert, align 8
  br label %if.end

if.end:                                           ; preds = %if.else, %if.then
  ret i64 0
}